; Function Attrs: nounwind uwtable
define internal ptr @list_clear(ptr readnone captures(none) %0, ptr noundef %1) #0 {
  %3 = icmp eq ptr %1, @_Py_NoneStruct
  %spec.store.select = select i1 %3, ptr null, ptr %1
  %4 = tail call i32 @PyList_Clear(ptr noundef %spec.store.select) #5
  %5 = icmp eq i32 %4, -1
  %6 = tail call ptr @PyErr_Occurred() #5
  %.not5 = icmp eq ptr %6, null
  br i1 %5, label %7, label %9

7:                                                ; preds = %2
  br i1 %.not5, label %8, label %14

8:                                                ; preds = %7
  tail call void @__assert_fail(ptr noundef nonnull @.str.7, ptr noundef nonnull @.str.8, i32 noundef 46, ptr noundef nonnull @__PRETTY_FUNCTION__.list_clear) #6
  unreachable

9:                                                ; preds = %2
  br i1 %.not5, label %11, label %10

10:                                               ; preds = %9
  tail call void @__assert_fail(ptr noundef nonnull @.str.9, ptr noundef nonnull @.str.8, i32 noundef 46, ptr noundef nonnull @__PRETTY_FUNCTION__.list_clear) #6
  unreachable

11:                                               ; preds = %9
  %12 = sext i32 %4 to i64
  %13 = tail call ptr @PyLong_FromLong(i64 noundef %12) #5
  br label %14

14:                                               ; preds = %7, %11
  %.0 = phi ptr [ %13, %11 ], [ null, %7 ]
  ret ptr %.0
}